target datalayout = "e-m:e-p270:32:32-p271:32:32-p272:64:64-i64:64-i128:128-f80:128-n8:16:32:64-S128"
target triple = "x86_64-pc-linux-gnu"

%"class.Json::Value" = type { %"union.Json::Value::ValueHolder", %struct.anon, %"class.Json::Value::Comments", i64, i64 }
%"union.Json::Value::ValueHolder" = type { i64 }
%struct.anon = type { i16, [2 x i8] }
%"class.Json::Value::Comments" = type { %"class.std::unique_ptr" }
%"class.std::unique_ptr" = type { %"struct.std::__uniq_ptr_data" }
%"struct.std::__uniq_ptr_data" = type { %"class.std::__uniq_ptr_impl" }
%"class.std::__uniq_ptr_impl" = type { %"class.std::tuple" }
%"class.std::tuple" = type { %"struct.std::_Tuple_impl" }
%"struct.std::_Tuple_impl" = type { %"struct.std::_Head_base.1" }
%"struct.std::_Head_base.1" = type { ptr }

; Function Attrs: mustprogress nounwind uwtable
define internal noundef zeroext i1 @_ZN4JsonL10IsIntegralEd(double noundef %0) #5 {
  %2 = alloca double, align 8
  %3 = alloca double, align 8
  store double %0, ptr %2, align 8
  %4 = load double, ptr %2, align 8
  %5 = call double @modf(double noundef %4, ptr noundef %3) #3
  %6 = fcmp oeq double %5, 0.000000e+00
  ret i1 %6
}

; Function Attrs: mustprogress nounwind uwtable
define dso_local noundef i32 @_ZNK4Json5Value4typeEv(ptr noundef nonnull align 8 dereferenceable(40) %0) #5 align 2 {
  %2 = alloca ptr, align 8
  store ptr %0, ptr %2, align 8
  %3 = load ptr, ptr %2, align 8
  %4 = getelementptr inbounds %"class.Json::Value", ptr %3, i32 0, i32 1
  %5 = load i16, ptr %4, align 8
  %6 = and i16 %5, 255
  %7 = zext i16 %6 to i32
  ret i32 %7
}

; Function Attrs: mustprogress uwtable
define dso_local noundef zeroext i1 @_ZNK4Json5Value5isIntEv(ptr noundef nonnull align 8 dereferenceable(40) %0) #4 align 2 {
  %2 = alloca i1, align 1
  %3 = alloca ptr, align 8
  store ptr %0, ptr %3, align 8
  %4 = load ptr, ptr %3, align 8
  %5 = call noundef i32 @_ZNK4Json5Value4typeEv(ptr noundef nonnull align 8 dereferenceable(40) %4)
  switch i32 %5, label %34 [
    i32 1, label %6
    i32 2, label %16
    i32 3, label %20
  ]

6:                                                ; preds = %1
  %7 = getelementptr inbounds %"class.Json::Value", ptr %4, i32 0, i32 0
  %8 = load i64, ptr %7, align 8
  %9 = icmp sge i64 %8, -2147483648
  br i1 %9, label %10, label %14

10:                                               ; preds = %6
  %11 = getelementptr inbounds %"class.Json::Value", ptr %4, i32 0, i32 0
  %12 = load i64, ptr %11, align 8
  %13 = icmp sle i64 %12, 2147483647
  br label %14

14:                                               ; preds = %10, %6
  %15 = phi i1 [ false, %6 ], [ %13, %10 ]
  store i1 %15, ptr %2, align 1
  br label %36

16:                                               ; preds = %1
  %17 = getelementptr inbounds %"class.Json::Value", ptr %4, i32 0, i32 0
  %18 = load i64, ptr %17, align 8
  %19 = icmp ule i64 %18, 2147483647
  store i1 %19, ptr %2, align 1
  br label %36

20:                                               ; preds = %1
  %21 = getelementptr inbounds %"class.Json::Value", ptr %4, i32 0, i32 0
  %22 = load double, ptr %21, align 8
  %23 = fcmp oge double %22, 0xC1E0000000000000
  br i1 %23, label %24, label %32

24:                                               ; preds = %20
  %25 = getelementptr inbounds %"class.Json::Value", ptr %4, i32 0, i32 0
  %26 = load double, ptr %25, align 8
  %27 = fcmp ole double %26, 0x41DFFFFFFFC00000
  br i1 %27, label %28, label %32

28:                                               ; preds = %24
  %29 = getelementptr inbounds %"class.Json::Value", ptr %4, i32 0, i32 0
  %30 = load double, ptr %29, align 8
  %31 = call noundef zeroext i1 @_ZN4JsonL10IsIntegralEd(double noundef %30)
  br label %32

32:                                               ; preds = %28, %24, %20
  %33 = phi i1 [ false, %24 ], [ false, %20 ], [ %31, %28 ]
  store i1 %33, ptr %2, align 1
  br label %36

34:                                               ; preds = %1
  br label %35

35:                                               ; preds = %34
  store i1 false, ptr %2, align 1
  br label %36

36:                                               ; preds = %35, %32, %16, %14
  %37 = load i1, ptr %2, align 1
  ret i1 %37
}