; Function Attrs: mustprogress nofree nounwind willreturn memory(argmem: read) uwtable
define dso_local noundef zeroext i1 @_ZNK4Json5Value5isIntEv(ptr nocapture noundef nonnull readonly align 8 dereferenceable(40) %0) local_unnamed_addr #22 align 2 {
  %2 = alloca double, align 8
  %3 = getelementptr inbounds i8, ptr %0, i64 8
  %4 = load i16, ptr %3, align 8
  %trunc = trunc i16 %4 to i8
  switch i8 %trunc, label %18 [
    i8 1, label %5
    i8 2, label %8
    i8 3, label %11
  ]

5:                                                ; preds = %1
  %6 = load i64, ptr %0, align 8
  %7 = add i64 %6, 2147483648
  %spec.select = icmp ult i64 %7, 4294967296
  br label %18

8:                                                ; preds = %1
  %9 = load i64, ptr %0, align 8
  %10 = icmp ult i64 %9, 2147483648
  br label %18

11:                                               ; preds = %1
  %12 = load double, ptr %0, align 8
  %13 = fcmp ult double %12, 0xC1E0000000000000
  %14 = fcmp ugt double %12, 0x41DFFFFFFFC00000
  %or.cond = or i1 %13, %14
  br i1 %or.cond, label %18, label %15

15:                                               ; preds = %11
  call void @llvm.lifetime.start.p0(i64 8, ptr nonnull %2)
  %16 = call double @modf(double noundef %12, ptr noundef nonnull %2) #35
  %17 = fcmp oeq double %16, 0.000000e+00
  call void @llvm.lifetime.end.p0(i64 8, ptr nonnull %2)
  br label %18

18:                                               ; preds = %1, %11, %15, %8, %5
  %.0 = phi i1 [ %10, %8 ], [ %spec.select, %5 ], [ false, %11 ], [ %17, %15 ], [ false, %1 ]
  ret i1 %.0
}